target datalayout = "e-m:e-p270:32:32-p271:32:32-p272:64:64-i64:64-i128:128-f80:128-n8:16:32:64-S128"
target triple = "x86_64-unknown-linux-gnu"

%struct.iovec = type { ptr, i64 }
%struct.QEMUIOVector = type { ptr, i32, %union.anon }
%union.anon = type { %struct.anon }
%struct.anon = type { i32, %struct.iovec }
%struct.anon.0 = type { [12 x i8], i64 }

@.str.1 = private unnamed_addr constant [19 x i8] c"../qemu/util/iov.c\00", align 1
@.str.5 = private unnamed_addr constant [19 x i8] c"qiov->nalloc != -1\00", align 1
@__PRETTY_FUNCTION__.qemu_iovec_reset = private unnamed_addr constant [38 x i8] c"void qemu_iovec_reset(QEMUIOVector *)\00", align 1

; Function Attrs: nounwind sspstrong uwtable
define dso_local void @qemu_iovec_reset(ptr noundef %qiov) #0 {
entry:
  %qiov.addr = alloca ptr, align 8
  store ptr %qiov, ptr %qiov.addr, align 8
  %0 = load ptr, ptr %qiov.addr, align 8
  %1 = getelementptr inbounds %struct.QEMUIOVector, ptr %0, i32 0, i32 2
  %nalloc = getelementptr inbounds %struct.anon, ptr %1, i32 0, i32 0
  %2 = load i32, ptr %nalloc, align 8
  %cmp = icmp ne i32 %2, -1
  br i1 %cmp, label %if.then, label %if.else

if.then:                                          ; preds = %entry
  br label %if.end

if.else:                                          ; preds = %entry
  call void @__assert_fail(ptr noundef @.str.5, ptr noundef @.str.1, i32 noundef 478, ptr noundef @__PRETTY_FUNCTION__.qemu_iovec_reset) #9
  unreachable

if.end:                                           ; preds = %if.then
  %3 = load ptr, ptr %qiov.addr, align 8
  %niov = getelementptr inbounds %struct.QEMUIOVector, ptr %3, i32 0, i32 1
  store i32 0, ptr %niov, align 8
  %4 = load ptr, ptr %qiov.addr, align 8
  %5 = getelementptr inbounds %struct.QEMUIOVector, ptr %4, i32 0, i32 2
  %size = getelementptr inbounds %struct.anon.0, ptr %5, i32 0, i32 1
  store i64 0, ptr %size, align 8
  ret void
}