; Function Attrs: nounwind sspstrong uwtable
define dso_local void @qemu_iovec_reset(ptr noundef captures(none) %qiov) local_unnamed_addr #0 {
entry:
  %0 = getelementptr inbounds nuw i8, ptr %qiov, i64 16
  %1 = load i32, ptr %0, align 8
  %cmp.not = icmp eq i32 %1, -1
  br i1 %cmp.not, label %if.else, label %if.end

if.else:                                          ; preds = %entry
  tail call void @__assert_fail(ptr noundef nonnull @.str.5, ptr noundef nonnull @.str.1, i32 noundef 478, ptr noundef nonnull @__PRETTY_FUNCTION__.qemu_iovec_reset) #17
  unreachable

if.end:                                           ; preds = %entry
  %niov = getelementptr inbounds nuw i8, ptr %qiov, i64 8
  store i32 0, ptr %niov, align 8
  %size = getelementptr inbounds nuw i8, ptr %qiov, i64 32
  store i64 0, ptr %size, align 8
  ret void
}